target datalayout = "e-m:e-p270:32:32-p271:32:32-p272:64:64-i64:64-i128:128-f80:128-n8:16:32:64-S128"
target triple = "x86_64-pc-linux-gnu"

%struct._rtp_dyn_payload_t = type { ptr, i64 }

; Function Attrs: null_pointer_is_valid sspstrong uwtable
define internal i32 @rtp_dyn_payloads_table_steal_func(ptr noundef %0, ptr noundef %1, ptr noundef %2) #1 {
  %4 = alloca ptr, align 8
  %5 = alloca ptr, align 8
  %6 = alloca ptr, align 8
  %7 = alloca ptr, align 8
  store ptr %0, ptr %4, align 8
  store ptr %1, ptr %5, align 8
  store ptr %2, ptr %6, align 8
  call void @llvm.lifetime.start.p0(i64 8, ptr %7) #14
  %8 = load ptr, ptr %5, align 8
  store ptr %8, ptr %7, align 8
  %9 = load ptr, ptr %7, align 8
  %10 = getelementptr inbounds nuw %struct._rtp_dyn_payload_t, ptr %9, i32 0, i32 1
  %11 = load i64, ptr %10, align 8
  %12 = icmp eq i64 %11, 0
  br i1 %12, label %13, label %14

13:                                               ; preds = %3
  br label %27

14:                                               ; preds = %3
  %15 = load ptr, ptr %7, align 8
  %16 = getelementptr inbounds nuw %struct._rtp_dyn_payload_t, ptr %15, i32 0, i32 0
  %17 = load ptr, ptr %16, align 8
  %18 = icmp ne ptr %17, null
  br i1 %18, label %19, label %26

19:                                               ; preds = %14
  %20 = load ptr, ptr %7, align 8
  %21 = getelementptr inbounds nuw %struct._rtp_dyn_payload_t, ptr %20, i32 0, i32 0
  %22 = load ptr, ptr %21, align 8
  call void @g_hash_table_steal_all(ptr noundef %22)
  %23 = load ptr, ptr %7, align 8
  %24 = getelementptr inbounds nuw %struct._rtp_dyn_payload_t, ptr %23, i32 0, i32 0
  %25 = load ptr, ptr %24, align 8
  call void @g_hash_table_destroy(ptr noundef %25)
  br label %26

26:                                               ; preds = %19, %14
  br label %27

27:                                               ; preds = %26, %13
  call void @llvm.lifetime.end.p0(i64 8, ptr %7) #14
  ret i32 1
}