; Function Attrs: null_pointer_is_valid sspstrong uwtable
define internal noundef i32 @rtp_dyn_payloads_table_steal_func(ptr readnone captures(none) %0, ptr noundef readonly captures(none) %1, ptr readnone captures(none) %2) #1 {
  %4 = getelementptr inbounds nuw i8, ptr %1, i64 8
  %5 = load i64, ptr %4, align 8
  %6 = icmp eq i64 %5, 0
  br i1 %6, label %11, label %7

7:                                                ; preds = %3
  %8 = load ptr, ptr %1, align 8
  %.not = icmp eq ptr %8, null
  br i1 %.not, label %11, label %9

9:                                                ; preds = %7
  tail call void @g_hash_table_steal_all(ptr noundef nonnull %8)
  %10 = load ptr, ptr %1, align 8
  tail call void @g_hash_table_destroy(ptr noundef %10)
  br label %11

11:                                               ; preds = %7, %9, %3
  ret i32 1
}